target datalayout = "e-m:e-p270:32:32-p271:32:32-p272:64:64-i64:64-i128:128-f80:128-n8:16:32:64-S128"
target triple = "x86_64-pc-linux-gnu"

%"class.ncnn::Mat" = type { ptr, ptr, i64, i32, ptr, i32, i32, i32, i32, i32, i64 }

; Function Attrs: mustprogress uwtable
define internal void @_ZN4ncnnL14crop_pack8_avxERKNS_3MatERS0_ii(ptr noundef nonnull align 8 dereferenceable(72) %0, ptr noundef nonnull align 8 dereferenceable(72) %1, i32 noundef %2, i32 noundef %3) #3 {
  %5 = alloca ptr, align 8
  %6 = alloca <8 x float>, align 32
  %7 = alloca ptr, align 8
  %8 = alloca ptr, align 8
  %9 = alloca ptr, align 8
  %10 = alloca i32, align 4
  %11 = alloca ptr, align 8
  %12 = alloca ptr, align 8
  %13 = alloca i32, align 4
  %14 = alloca i32, align 4
  %15 = alloca i32, align 4
  %16 = alloca i32, align 4
  %17 = alloca i32, align 4
  %18 = alloca ptr, align 8
  %19 = alloca ptr, align 8
  %20 = alloca i32, align 4
  %21 = alloca i32, align 4
  %22 = alloca <8 x float>, align 32
  store ptr %0, ptr %11, align 8
  store ptr %1, ptr %12, align 8
  store i32 %2, ptr %13, align 4
  store i32 %3, ptr %14, align 4
  %23 = load ptr, ptr %12, align 8
  %24 = getelementptr inbounds nuw %"class.ncnn::Mat", ptr %23, i32 0, i32 6
  %25 = load i32, ptr %24, align 4
  store i32 %25, ptr %15, align 4
  %26 = load ptr, ptr %12, align 8
  %27 = getelementptr inbounds nuw %"class.ncnn::Mat", ptr %26, i32 0, i32 7
  %28 = load i32, ptr %27, align 8
  store i32 %28, ptr %16, align 4
  %29 = load ptr, ptr %11, align 8
  %30 = getelementptr inbounds nuw %"class.ncnn::Mat", ptr %29, i32 0, i32 6
  %31 = load i32, ptr %30, align 4
  %32 = load ptr, ptr %12, align 8
  %33 = getelementptr inbounds nuw %"class.ncnn::Mat", ptr %32, i32 0, i32 6
  %34 = load i32, ptr %33, align 4
  %35 = sub nsw i32 %31, %34
  %36 = load i32, ptr %14, align 4
  %37 = sub nsw i32 %35, %36
  store i32 %37, ptr %17, align 4
  %38 = load ptr, ptr %11, align 8
  %39 = load i32, ptr %13, align 4
  store ptr %38, ptr %9, align 8
  store i32 %39, ptr %10, align 4
  %40 = load ptr, ptr %9, align 8
  %41 = load ptr, ptr %40, align 8
  %42 = getelementptr inbounds nuw %"class.ncnn::Mat", ptr %40, i32 0, i32 6
  %43 = load i32, ptr %42, align 4
  %44 = sext i32 %43 to i64
  %45 = load i32, ptr %10, align 4
  %46 = sext i32 %45 to i64
  %47 = mul i64 %44, %46
  %48 = getelementptr inbounds nuw %"class.ncnn::Mat", ptr %40, i32 0, i32 2
  %49 = load i64, ptr %48, align 8
  %50 = mul i64 %47, %49
  %51 = getelementptr inbounds i8, ptr %41, i64 %50
  %52 = load i32, ptr %14, align 4
  %53 = mul nsw i32 %52, 8
  %54 = sext i32 %53 to i64
  %55 = getelementptr inbounds float, ptr %51, i64 %54
  store ptr %55, ptr %18, align 8
  %56 = load ptr, ptr %12, align 8
  store ptr %56, ptr %8, align 8
  %57 = load ptr, ptr %8, align 8
  %58 = load ptr, ptr %57, align 8
  store ptr %58, ptr %19, align 8
  store i32 0, ptr %20, align 4
  br label %59

59:                                               ; preds = %91, %4
  %60 = load i32, ptr %20, align 4
  %61 = load i32, ptr %16, align 4
  %62 = icmp slt i32 %60, %61
  br i1 %62, label %63, label %94

63:                                               ; preds = %59
  store i32 0, ptr %21, align 4
  br label %64

64:                                               ; preds = %80, %63
  %65 = load i32, ptr %21, align 4
  %66 = load i32, ptr %15, align 4
  %67 = icmp slt i32 %65, %66
  br i1 %67, label %68, label %83

68:                                               ; preds = %64
  %69 = load ptr, ptr %18, align 8
  store ptr %69, ptr %7, align 8
  %70 = load ptr, ptr %7, align 8
  %71 = load <8 x float>, ptr %70, align 1
  store <8 x float> %71, ptr %22, align 32
  %72 = load ptr, ptr %19, align 8
  %73 = load <8 x float>, ptr %22, align 32
  store ptr %72, ptr %5, align 8
  store <8 x float> %73, ptr %6, align 32
  %74 = load <8 x float>, ptr %6, align 32
  %75 = load ptr, ptr %5, align 8
  store <8 x float> %74, ptr %75, align 1
  %76 = load ptr, ptr %18, align 8
  %77 = getelementptr inbounds float, ptr %76, i64 8
  store ptr %77, ptr %18, align 8
  %78 = load ptr, ptr %19, align 8
  %79 = getelementptr inbounds float, ptr %78, i64 8
  store ptr %79, ptr %19, align 8
  br label %80

80:                                               ; preds = %68
  %81 = load i32, ptr %21, align 4
  %82 = add nsw i32 %81, 1
  store i32 %82, ptr %21, align 4
  br label %64, !llvm.loop !97

83:                                               ; preds = %64
  %84 = load i32, ptr %14, align 4
  %85 = load i32, ptr %17, align 4
  %86 = add nsw i32 %84, %85
  %87 = mul nsw i32 %86, 8
  %88 = load ptr, ptr %18, align 8
  %89 = sext i32 %87 to i64
  %90 = getelementptr inbounds float, ptr %88, i64 %89
  store ptr %90, ptr %18, align 8
  br label %91

91:                                               ; preds = %83
  %92 = load i32, ptr %20, align 4
  %93 = add nsw i32 %92, 1
  store i32 %93, ptr %20, align 4
  br label %59, !llvm.loop !98

94:                                               ; preds = %59
  ret void
}